; ModuleID = 'source-C-CXX/51/2403.c'
source_filename = "source-C-CXX/51/2403.c"
target datalayout = "e-m:e-p270:32:32-p271:32:32-p272:64:64-i64:64-f80:128-n8:16:32:64-S128"
target triple = "x86_64-pc-linux-gnu"

@.str = private unnamed_addr constant [6 x i8] c"%d %d\00", align 1
@.str.1 = private unnamed_addr constant [3 x i8] c"%d\00", align 1
@.str.2 = private unnamed_addr constant [4 x i8] c" %d\00", align 1

; Function Attrs: nofree nounwind sspstrong uwtable
define dso_local void @main() local_unnamed_addr #0 {
  %1 = alloca i32, align 4
  %2 = alloca i32, align 4
  %3 = alloca [100 x i32*], align 16
  %4 = bitcast i32* %1 to i8*
  call void @llvm.lifetime.start.p0i8(i64 4, i8* nonnull %4) #4
  %5 = bitcast i32* %2 to i8*
  call void @llvm.lifetime.start.p0i8(i64 4, i8* nonnull %5) #4
  %6 = call i32 (i8*, ...) @__isoc99_scanf(i8* getelementptr inbounds ([6 x i8], [6 x i8]* @.str, i64 0, i64 0), i32* nonnull %1, i32* nonnull %2)
  %7 = bitcast [100 x i32*]* %3 to i8*
  call void @llvm.lifetime.start.p0i8(i64 800, i8* nonnull %7) #4
  %8 = load i32, i32* %1, align 4, !tbaa !5
  %9 = load i32, i32* %2, align 4, !tbaa !5
  %10 = icmp sgt i32 %8, %9
  br i1 %10, label %15, label %11

11:                                               ; preds = %15, %0
  %12 = phi i32 [ %8, %0 ], [ %25, %15 ]
  %13 = phi i32 [ %9, %0 ], [ %26, %15 ]
  %14 = icmp sgt i32 %13, 0
  br i1 %14, label %41, label %31

15:                                               ; preds = %0, %15
  %16 = phi i32 [ %26, %15 ], [ %9, %0 ]
  %17 = phi i32 [ %24, %15 ], [ 0, %0 ]
  %18 = call noalias align 16 dereferenceable_or_null(4) i8* @calloc(i64 1, i64 4) #4
  %19 = add nsw i32 %16, %17
  %20 = sext i32 %19 to i64
  %21 = getelementptr inbounds [100 x i32*], [100 x i32*]* %3, i64 0, i64 %20
  %22 = bitcast i32** %21 to i8**
  store i8* %18, i8** %22, align 8, !tbaa !9
  %23 = call i32 (i8*, ...) @__isoc99_scanf(i8* getelementptr inbounds ([3 x i8], [3 x i8]* @.str.1, i64 0, i64 0), i8* %18)
  %24 = add nuw nsw i32 %17, 1
  %25 = load i32, i32* %1, align 4, !tbaa !5
  %26 = load i32, i32* %2, align 4, !tbaa !5
  %27 = sub nsw i32 %25, %26
  %28 = icmp slt i32 %24, %27
  br i1 %28, label %15, label %11, !llvm.loop !11

29:                                               ; preds = %41
  %30 = load i32, i32* %1, align 4, !tbaa !5
  br label %31

31:                                               ; preds = %29, %11
  %32 = phi i32 [ %30, %29 ], [ %12, %11 ]
  %33 = icmp sgt i32 %32, 0
  br i1 %33, label %34, label %61

34:                                               ; preds = %31
  %35 = getelementptr inbounds [100 x i32*], [100 x i32*]* %3, i64 0, i64 0
  %36 = load i32*, i32** %35, align 16
  %37 = load i32, i32* %36, align 4, !tbaa !5
  %38 = call i32 (i8*, ...) @printf(i8* nonnull dereferenceable(1) getelementptr inbounds ([3 x i8], [3 x i8]* @.str.1, i64 0, i64 0), i32 %37)
  %39 = load i32, i32* %1, align 4, !tbaa !5
  %40 = icmp sgt i32 %39, 1
  br i1 %40, label %51, label %61

41:                                               ; preds = %11, %41
  %42 = phi i64 [ %47, %41 ], [ 0, %11 ]
  %43 = call noalias align 16 dereferenceable_or_null(4) i8* @calloc(i64 1, i64 4) #4
  %44 = getelementptr inbounds [100 x i32*], [100 x i32*]* %3, i64 0, i64 %42
  %45 = bitcast i32** %44 to i8**
  store i8* %43, i8** %45, align 8, !tbaa !9
  %46 = call i32 (i8*, ...) @__isoc99_scanf(i8* getelementptr inbounds ([3 x i8], [3 x i8]* @.str.1, i64 0, i64 0), i8* %43)
  %47 = add nuw nsw i64 %42, 1
  %48 = load i32, i32* %2, align 4, !tbaa !5
  %49 = sext i32 %48 to i64
  %50 = icmp slt i64 %47, %49
  br i1 %50, label %41, label %29, !llvm.loop !13

51:                                               ; preds = %34, %51
  %52 = phi i64 [ %58, %51 ], [ 1, %34 ]
  %53 = getelementptr inbounds [100 x i32*], [100 x i32*]* %3, i64 0, i64 %52
  %54 = load i32*, i32** %53, align 8, !tbaa !9
  %55 = load i32, i32* %54, align 4, !tbaa !5
  %56 = call i32 (i8*, ...) @printf(i8* nonnull dereferenceable(1) getelementptr inbounds ([4 x i8], [4 x i8]* @.str.2, i64 0, i64 0), i32 %55)
  %57 = load i32, i32* %1, align 4, !tbaa !5
  %58 = add nuw nsw i64 %52, 1
  %59 = sext i32 %57 to i64
  %60 = icmp slt i64 %58, %59
  br i1 %60, label %51, label %61, !llvm.loop !14

61:                                               ; preds = %51, %34, %31
  call void @llvm.lifetime.end.p0i8(i64 800, i8* nonnull %7) #4
  call void @llvm.lifetime.end.p0i8(i64 4, i8* nonnull %5) #4
  call void @llvm.lifetime.end.p0i8(i64 4, i8* nonnull %4) #4
  ret void
}

; Function Attrs: argmemonly mustprogress nofree nosync nounwind willreturn
declare void @llvm.lifetime.start.p0i8(i64 immarg, i8* nocapture) #1

; Function Attrs: nofree nounwind
declare noundef i32 @__isoc99_scanf(i8* nocapture noundef readonly, ...) local_unnamed_addr #2

; Function Attrs: mustprogress nofree nounwind willreturn
declare noalias noundef align 16 i8* @calloc(i64 noundef, i64 noundef) local_unnamed_addr #3

; Function Attrs: nofree nounwind
declare noundef i32 @printf(i8* nocapture noundef readonly, ...) local_unnamed_addr #2

; Function Attrs: argmemonly mustprogress nofree nosync nounwind willreturn
declare void @llvm.lifetime.end.p0i8(i64 immarg, i8* nocapture) #1


!llvm.module.flags = !{!0, !1, !2, !3}
!llvm.ident = !{!4}

!0 = !{i32 1, !"wchar_size", i32 4}
!1 = !{i32 7, !"PIC Level", i32 2}
!2 = !{i32 7, !"PIE Level", i32 2}
!3 = !{i32 7, !"uwtable", i32 1}
!4 = !{!"clang version 13.0.0"}
!5 = !{!6, !6, i64 0}
!6 = !{!"int", !7, i64 0}
!7 = !{!"omnipotent char", !8, i64 0}
!8 = !{!"Simple C/C++ TBAA"}
!9 = !{!10, !10, i64 0}
!10 = !{!"any pointer", !7, i64 0}
!11 = distinct !{!11, !12}
!12 = !{!"llvm.loop.mustprogress"}
!13 = distinct !{!13, !12}
!14 = distinct !{!14, !12, !15}
!15 = !{!"llvm.loop.peeled.count", i32 1}
